target datalayout = "e-m:e-p270:32:32-p271:32:32-p272:64:64-i64:64-i128:128-f80:128-n8:16:32:64-S128"
target triple = "x86_64-pc-linux-gnu"

; Function Attrs: inlinehint nounwind sspstrong willreturn memory(none) uwtable
define internal zeroext i1 @RB_TEST(i64 noundef %0) #1 {
  %2 = alloca i64, align 8
  store i64 %0, ptr %2, align 8, !tbaa !11
  %3 = load i64, ptr %2, align 8, !tbaa !11
  %4 = and i64 %3, -5
  %5 = icmp ne i64 %4, 0
  ret i1 %5
}

; Function Attrs: inlinehint nounwind sspstrong willreturn memory(none) uwtable
define internal zeroext i1 @RB_UNDEF_P(i64 noundef %0) #1 {
  %2 = alloca i64, align 8
  store i64 %0, ptr %2, align 8, !tbaa !11
  %3 = load i64, ptr %2, align 8, !tbaa !11
  %4 = icmp eq i64 %3, 36
  ret i1 %4
}

; Function Attrs: nounwind sspstrong uwtable
define dso_local i32 @rb_eql(i64 noundef %0, i64 noundef %1) #0 {
  %3 = alloca i32, align 4
  %4 = alloca i64, align 8
  %5 = alloca i64, align 8
  %6 = alloca i64, align 8
  %7 = alloca i32, align 4
  store i64 %0, ptr %4, align 8, !tbaa !11
  store i64 %1, ptr %5, align 8, !tbaa !11
  call void @llvm.lifetime.start.p0(i64 8, ptr %6) #28
  %8 = load i64, ptr %4, align 8, !tbaa !11
  %9 = load i64, ptr %5, align 8, !tbaa !11
  %10 = icmp eq i64 %8, %9
  br i1 %10, label %11, label %12

11:                                               ; preds = %2
  store i32 1, ptr %3, align 4
  store i32 1, ptr %7, align 4
  br label %26

12:                                               ; preds = %2
  %13 = load i64, ptr %4, align 8, !tbaa !11
  %14 = load i64, ptr %5, align 8, !tbaa !11
  %15 = call i64 @rb_eql_opt(i64 noundef %13, i64 noundef %14)
  store i64 %15, ptr %6, align 8, !tbaa !11
  %16 = load i64, ptr %6, align 8, !tbaa !11
  %17 = call zeroext i1 @RB_UNDEF_P(i64 noundef %16) #27
  br i1 %17, label %18, label %22

18:                                               ; preds = %12
  %19 = load i64, ptr %4, align 8, !tbaa !11
  %20 = load i64, ptr %5, align 8, !tbaa !11
  %21 = call i64 (i64, i64, i32, ...) @rb_funcall(i64 noundef %19, i64 noundef 155, i32 noundef 1, i64 noundef %20)
  store i64 %21, ptr %6, align 8, !tbaa !11
  br label %22

22:                                               ; preds = %18, %12
  %23 = load i64, ptr %6, align 8, !tbaa !11
  %24 = call zeroext i1 @RB_TEST(i64 noundef %23) #27
  %25 = zext i1 %24 to i32
  store i32 %25, ptr %3, align 4
  store i32 1, ptr %7, align 4
  br label %26

26:                                               ; preds = %22, %11
  call void @llvm.lifetime.end.p0(i64 8, ptr %6) #28
  %27 = load i32, ptr %3, align 4
  ret i32 %27
}