; Function Attrs: nounwind sspstrong uwtable
define dso_local range(i32 0, 2) i32 @rb_eql(i64 noundef %0, i64 noundef %1) local_unnamed_addr #2 {
  %3 = icmp eq i64 %0, %1
  br i1 %3, label %13, label %4

4:                                                ; preds = %2
  %5 = tail call i64 @rb_eql_opt(i64 noundef %0, i64 noundef %1) #23
  %6 = icmp eq i64 %5, 36
  br i1 %6, label %7, label %9

7:                                                ; preds = %4
  %8 = tail call i64 (i64, i64, i32, ...) @rb_funcall(i64 noundef %0, i64 noundef 155, i32 noundef 1, i64 noundef %1) #23
  br label %9

9:                                                ; preds = %7, %4
  %.0 = phi i64 [ %8, %7 ], [ %5, %4 ]
  %10 = and i64 %.0, -5
  %11 = icmp ne i64 %10, 0
  %12 = zext i1 %11 to i32
  br label %13

13:                                               ; preds = %2, %9
  %.09 = phi i32 [ %12, %9 ], [ 1, %2 ]
  ret i32 %.09
}